target datalayout = "e-m:e-p270:32:32-p271:32:32-p272:64:64-i64:64-i128:128-f80:128-n8:16:32:64-S128"
target triple = "x86_64-pc-linux-gnu"

@_ZN3iglL21CANONICAL_VIEW_QUAT_FE = internal constant [24 x [4 x float]] [[4 x float] [float 0.000000e+00, float 0.000000e+00, float 0.000000e+00, float 1.000000e+00], [4 x float] [float 0.000000e+00, float 0.000000e+00, float 0x3FE6A09E60000000, float 0x3FE6A09E60000000], [4 x float] [float 0.000000e+00, float 0.000000e+00, float 1.000000e+00, float 0.000000e+00], [4 x float] [float 0.000000e+00, float 0.000000e+00, float 0x3FE6A09E60000000, float 0xBFE6A09E60000000], [4 x float] [float 0.000000e+00, float -1.000000e+00, float 0.000000e+00, float 0.000000e+00], [4 x float] [float 0xBFE6A09E60000000, float 0x3FE6A09E60000000, float 0.000000e+00, float 0.000000e+00], [4 x float] [float -1.000000e+00, float 0.000000e+00, float 0.000000e+00, float 0.000000e+00], [4 x float] [float 0xBFE6A09E60000000, float 0xBFE6A09E60000000, float 0.000000e+00, float 0.000000e+00], [4 x float] [float -5.000000e-01, float -5.000000e-01, float -5.000000e-01, float 5.000000e-01], [4 x float] [float 0.000000e+00, float 0xBFE6A09E60000000, float 0.000000e+00, float 0x3FE6A09E60000000], [4 x float] [float 5.000000e-01, float -5.000000e-01, float 5.000000e-01, float 5.000000e-01], [4 x float] [float 0x3FE6A09E60000000, float 0.000000e+00, float 0x3FE6A09E60000000, float 0.000000e+00], [4 x float] [float 0x3FE6A09E60000000, float 0.000000e+00, float 0xBFE6A09E60000000, float 0.000000e+00], [4 x float] [float 5.000000e-01, float 5.000000e-01, float -5.000000e-01, float 5.000000e-01], [4 x float] [float 0.000000e+00, float 0x3FE6A09E60000000, float 0.000000e+00, float 0x3FE6A09E60000000], [4 x float] [float -5.000000e-01, float 5.000000e-01, float 5.000000e-01, float 5.000000e-01], [4 x float] [float 0.000000e+00, float 0x3FE6A09E60000000, float 0x3FE6A09E60000000, float 0.000000e+00], [4 x float] [float -5.000000e-01, float 5.000000e-01, float 5.000000e-01, float -5.000000e-01], [4 x float] [float 0xBFE6A09E60000000, float 0.000000e+00, float 0.000000e+00, float 0xBFE6A09E60000000], [4 x float] [float -5.000000e-01, float -5.000000e-01, float -5.000000e-01, float -5.000000e-01], [4 x float] [float 0xBFE6A09E60000000, float 0.000000e+00, float 0.000000e+00, float 0x3FE6A09E60000000], [4 x float] [float -5.000000e-01, float -5.000000e-01, float 5.000000e-01, float 5.000000e-01], [4 x float] [float 0.000000e+00, float 0xBFE6A09E60000000, float 0x3FE6A09E60000000, float 0.000000e+00], [4 x float] [float 5.000000e-01, float -5.000000e-01, float 5.000000e-01, float -5.000000e-01]], align 16
@_ZN3iglL21CANONICAL_VIEW_QUAT_DE = internal constant [24 x [4 x double]] [[4 x double] [double 0.000000e+00, double 0.000000e+00, double 0.000000e+00, double 1.000000e+00], [4 x double] [double 0.000000e+00, double 0.000000e+00, double 0x3FE6A09E667F3BCD, double 0x3FE6A09E667F3BCD], [4 x double] [double 0.000000e+00, double 0.000000e+00, double 1.000000e+00, double 0.000000e+00], [4 x double] [double 0.000000e+00, double 0.000000e+00, double 0x3FE6A09E667F3BCD, double 0xBFE6A09E667F3BCD], [4 x double] [double 0.000000e+00, double -1.000000e+00, double 0.000000e+00, double 0.000000e+00], [4 x double] [double 0xBFE6A09E667F3BCD, double 0x3FE6A09E667F3BCD, double 0.000000e+00, double 0.000000e+00], [4 x double] [double -1.000000e+00, double 0.000000e+00, double 0.000000e+00, double 0.000000e+00], [4 x double] [double 0xBFE6A09E667F3BCD, double 0xBFE6A09E667F3BCD, double 0.000000e+00, double 0.000000e+00], [4 x double] [double -5.000000e-01, double -5.000000e-01, double -5.000000e-01, double 5.000000e-01], [4 x double] [double 0.000000e+00, double 0xBFE6A09E667F3BCD, double 0.000000e+00, double 0x3FE6A09E667F3BCD], [4 x double] [double 5.000000e-01, double -5.000000e-01, double 5.000000e-01, double 5.000000e-01], [4 x double] [double 0x3FE6A09E667F3BCD, double 0.000000e+00, double 0x3FE6A09E667F3BCD, double 0.000000e+00], [4 x double] [double 0x3FE6A09E667F3BCD, double 0.000000e+00, double 0xBFE6A09E667F3BCD, double 0.000000e+00], [4 x double] [double 5.000000e-01, double 5.000000e-01, double -5.000000e-01, double 5.000000e-01], [4 x double] [double 0.000000e+00, double 0x3FE6A09E667F3BCD, double 0.000000e+00, double 0x3FE6A09E667F3BCD], [4 x double] [double -5.000000e-01, double 5.000000e-01, double 5.000000e-01, double 5.000000e-01], [4 x double] [double 0.000000e+00, double 0x3FE6A09E667F3BCD, double 0x3FE6A09E667F3BCD, double 0.000000e+00], [4 x double] [double -5.000000e-01, double 5.000000e-01, double 5.000000e-01, double -5.000000e-01], [4 x double] [double 0xBFE6A09E667F3BCD, double 0.000000e+00, double 0.000000e+00, double 0xBFE6A09E667F3BCD], [4 x double] [double -5.000000e-01, double -5.000000e-01, double -5.000000e-01, double -5.000000e-01], [4 x double] [double 0xBFE6A09E667F3BCD, double 0.000000e+00, double 0.000000e+00, double 0x3FE6A09E667F3BCD], [4 x double] [double -5.000000e-01, double -5.000000e-01, double 5.000000e-01, double 5.000000e-01], [4 x double] [double 0.000000e+00, double 0xBFE6A09E667F3BCD, double 0x3FE6A09E667F3BCD, double 0.000000e+00], [4 x double] [double 5.000000e-01, double -5.000000e-01, double 5.000000e-01, double -5.000000e-01]], align 16

; Function Attrs: mustprogress nounwind uwtable
define dso_local noundef float @_ZN3igl19CANONICAL_VIEW_QUATIfEET_ii(i32 noundef %0, i32 noundef %1) #0 {
  %3 = alloca i32, align 4
  %4 = alloca i32, align 4
  store i32 %0, ptr %3, align 4, !tbaa !4
  store i32 %1, ptr %4, align 4, !tbaa !4
  %5 = load i32, ptr %3, align 4, !tbaa !4
  %6 = sext i32 %5 to i64
  %7 = getelementptr inbounds [24 x [4 x float]], ptr @_ZN3iglL21CANONICAL_VIEW_QUAT_FE, i64 0, i64 %6
  %8 = load i32, ptr %4, align 4, !tbaa !4
  %9 = sext i32 %8 to i64
  %10 = getelementptr inbounds [4 x float], ptr %7, i64 0, i64 %9
  %11 = load float, ptr %10, align 4, !tbaa !8
  ret float %11
}

; Function Attrs: mustprogress nounwind uwtable
define dso_local noundef double @_ZN3igl19CANONICAL_VIEW_QUATIdEET_ii(i32 noundef %0, i32 noundef %1) #0 {
  %3 = alloca i32, align 4
  %4 = alloca i32, align 4
  store i32 %0, ptr %3, align 4, !tbaa !4
  store i32 %1, ptr %4, align 4, !tbaa !4
  %5 = load i32, ptr %3, align 4, !tbaa !4
  %6 = sext i32 %5 to i64
  %7 = getelementptr inbounds [24 x [4 x double]], ptr @_ZN3iglL21CANONICAL_VIEW_QUAT_DE, i64 0, i64 %6
  %8 = load i32, ptr %4, align 4, !tbaa !4
  %9 = sext i32 %8 to i64
  %10 = getelementptr inbounds [4 x double], ptr %7, i64 0, i64 %9
  %11 = load double, ptr %10, align 8, !tbaa !10
  ret double %11
}


!llvm.module.flags = !{!0, !1, !2, !3}

!0 = !{i32 1, !"wchar_size", i32 4}
!1 = !{i32 8, !"PIC Level", i32 2}
!2 = !{i32 7, !"PIE Level", i32 2}
!3 = !{i32 7, !"uwtable", i32 2}
!4 = !{!5, !5, i64 0}
!5 = !{!"int", !6, i64 0}
!6 = !{!"omnipotent char", !7, i64 0}
!7 = !{!"Simple C++ TBAA"}
!8 = !{!9, !9, i64 0}
!9 = !{!"float", !6, i64 0}
!10 = !{!11, !11, i64 0}
!11 = !{!"double", !6, i64 0}
